target datalayout = "e-m:e-p270:32:32-p271:32:32-p272:64:64-i64:64-i128:128-f80:128-n8:16:32:64-S128"
target triple = "x86_64-unknown-linux-gnu"

%"class.cvc5::internal::NodeTemplate" = type { ptr }
%"class.cvc5::internal::theory::quantifiers::EnumStreamPermutation" = type <{ %"class.cvc5::internal::EnvObj", ptr, %"class.std::map", %"class.std::map.0", i8, [7 x i8], %"class.cvc5::internal::NodeTemplate", %"class.std::unordered_set", %"class.std::vector", i32, [4 x i8] }>
%"class.cvc5::internal::EnvObj" = type { ptr, ptr }
%"class.std::map" = type { %"class.std::_Rb_tree" }
%"class.std::_Rb_tree" = type { %"struct.std::_Rb_tree<unsigned int, std::pair<const unsigned int, std::vector<cvc5::internal::NodeTemplate<true>>>, std::_Select1st<std::pair<const unsigned int, std::vector<cvc5::internal::NodeTemplate<true>>>>, std::less<unsigned int>>::_Rb_tree_impl" }
%"struct.std::_Rb_tree<unsigned int, std::pair<const unsigned int, std::vector<cvc5::internal::NodeTemplate<true>>>, std::_Select1st<std::pair<const unsigned int, std::vector<cvc5::internal::NodeTemplate<true>>>>, std::less<unsigned int>>::_Rb_tree_impl" = type { %"struct.std::_Rb_tree_key_compare", %"struct.std::_Rb_tree_header" }
%"struct.std::_Rb_tree_key_compare" = type { %"struct.std::less" }
%"struct.std::less" = type { i8 }
%"struct.std::_Rb_tree_header" = type { %"struct.std::_Rb_tree_node_base", i64 }
%"struct.std::_Rb_tree_node_base" = type { i32, ptr, ptr, ptr }
%"class.std::map.0" = type { %"class.std::_Rb_tree.1" }
%"class.std::_Rb_tree.1" = type { %"struct.std::_Rb_tree<cvc5::internal::NodeTemplate<true>, std::pair<const cvc5::internal::NodeTemplate<true>, std::map<cvc5::internal::TypeNode, cvc5::internal::NodeTemplate<true>>>, std::_Select1st<std::pair<const cvc5::internal::NodeTemplate<true>, std::map<cvc5::internal::TypeNode, cvc5::internal::NodeTemplate<true>>>>, std::less<cvc5::internal::NodeTemplate<true>>>::_Rb_tree_impl" }
%"struct.std::_Rb_tree<cvc5::internal::NodeTemplate<true>, std::pair<const cvc5::internal::NodeTemplate<true>, std::map<cvc5::internal::TypeNode, cvc5::internal::NodeTemplate<true>>>, std::_Select1st<std::pair<const cvc5::internal::NodeTemplate<true>, std::map<cvc5::internal::TypeNode, cvc5::internal::NodeTemplate<true>>>>, std::less<cvc5::internal::NodeTemplate<true>>>::_Rb_tree_impl" = type { %"struct.std::_Rb_tree_key_compare.5", %"struct.std::_Rb_tree_header" }
%"struct.std::_Rb_tree_key_compare.5" = type { %"struct.std::less.6" }
%"struct.std::less.6" = type { i8 }
%"class.std::unordered_set" = type { %"class.std::_Hashtable" }
%"class.std::_Hashtable" = type { ptr, i64, %"struct.std::__detail::_Hash_node_base", i64, %"struct.std::__detail::_Prime_rehash_policy", ptr }
%"struct.std::__detail::_Hash_node_base" = type { ptr }
%"struct.std::__detail::_Prime_rehash_policy" = type { float, i64 }
%"class.std::vector" = type { %"struct.std::_Vector_base" }
%"struct.std::_Vector_base" = type { %"struct.std::_Vector_base<cvc5::internal::theory::quantifiers::EnumStreamPermutation::PermutationState, std::allocator<cvc5::internal::theory::quantifiers::EnumStreamPermutation::PermutationState>>::_Vector_impl" }
%"struct.std::_Vector_base<cvc5::internal::theory::quantifiers::EnumStreamPermutation::PermutationState, std::allocator<cvc5::internal::theory::quantifiers::EnumStreamPermutation::PermutationState>>::_Vector_impl" = type { %"struct.std::_Vector_base<cvc5::internal::theory::quantifiers::EnumStreamPermutation::PermutationState, std::allocator<cvc5::internal::theory::quantifiers::EnumStreamPermutation::PermutationState>>::_Vector_impl_data" }
%"struct.std::_Vector_base<cvc5::internal::theory::quantifiers::EnumStreamPermutation::PermutationState, std::allocator<cvc5::internal::theory::quantifiers::EnumStreamPermutation::PermutationState>>::_Vector_impl_data" = type { ptr, ptr, ptr }
%"class.cvc5::internal::TypeNode" = type { ptr }
%"class.cvc5::internal::theory::quantifiers::EnumStreamSubstitution" = type <{ %"class.cvc5::internal::EnvObj", ptr, %"class.cvc5::internal::TypeNode", %"class.cvc5::internal::NodeTemplate", %"class.std::map", %"class.std::map.0", %"class.cvc5::internal::NodeTemplate", %"class.std::unordered_set", %"class.cvc5::internal::theory::quantifiers::EnumStreamPermutation", %"class.std::vector.543", i32, [4 x i8] }>
%"class.std::vector.543" = type { %"struct.std::_Vector_base.544" }
%"struct.std::_Vector_base.544" = type { %"struct.std::_Vector_base<cvc5::internal::theory::quantifiers::EnumStreamSubstitution::CombinationState, std::allocator<cvc5::internal::theory::quantifiers::EnumStreamSubstitution::CombinationState>>::_Vector_impl" }
%"struct.std::_Vector_base<cvc5::internal::theory::quantifiers::EnumStreamSubstitution::CombinationState, std::allocator<cvc5::internal::theory::quantifiers::EnumStreamSubstitution::CombinationState>>::_Vector_impl" = type { %"struct.std::_Vector_base<cvc5::internal::theory::quantifiers::EnumStreamSubstitution::CombinationState, std::allocator<cvc5::internal::theory::quantifiers::EnumStreamSubstitution::CombinationState>>::_Vector_impl_data" }
%"struct.std::_Vector_base<cvc5::internal::theory::quantifiers::EnumStreamSubstitution::CombinationState, std::allocator<cvc5::internal::theory::quantifiers::EnumStreamSubstitution::CombinationState>>::_Vector_impl_data" = type { ptr, ptr, ptr }
%"class.cvc5::internal::theory::quantifiers::EnumStreamConcrete" = type { %"class.cvc5::internal::theory::quantifiers::EnumValGenerator", %"class.cvc5::internal::theory::quantifiers::EnumStreamSubstitution", %"class.cvc5::internal::NodeTemplate" }
%"class.cvc5::internal::theory::quantifiers::EnumValGenerator" = type { %"class.cvc5::internal::EnvObj" }

; Function Attrs: mustprogress uwtable
define hidden void @_ZN4cvc58internal6theory11quantifiers18EnumStreamConcrete10initializeENS0_12NodeTemplateILb1EEE(ptr noundef nonnull align 8 dereferenceable(480) %this, ptr noundef %e) unnamed_addr #4 align 2 personality ptr @__gxx_personality_v0 {
entry:
  %this.addr = alloca ptr, align 8
  %e.indirect_addr = alloca ptr, align 8
  %agg.tmp = alloca %"class.cvc5::internal::TypeNode", align 8
  %exn.slot = alloca ptr, align 8
  %ehselector.slot = alloca i32, align 4
  store ptr %this, ptr %this.addr, align 8
  store ptr %e, ptr %e.indirect_addr, align 8
  %this1 = load ptr, ptr %this.addr, align 8
  %d_ess = getelementptr inbounds %"class.cvc5::internal::theory::quantifiers::EnumStreamConcrete", ptr %this1, i32 0, i32 1
  call void @_ZNK4cvc58internal12NodeTemplateILb1EE7getTypeEb(ptr sret(%"class.cvc5::internal::TypeNode") align 8 %agg.tmp, ptr noundef nonnull align 8 dereferenceable(8) %e, i1 noundef zeroext false)
  invoke void @_ZN4cvc58internal6theory11quantifiers22EnumStreamSubstitution10initializeENS0_8TypeNodeE(ptr noundef nonnull align 8 dereferenceable(452) %d_ess, ptr noundef %agg.tmp)
          to label %invoke.cont unwind label %lpad

invoke.cont:                                      ; preds = %entry
  call void @_ZN4cvc58internal8TypeNodeD2Ev(ptr noundef nonnull align 8 dereferenceable(8) %agg.tmp) #3
  ret void

lpad:                                             ; preds = %entry
  %0 = landingpad { ptr, i32 }
          cleanup
  %1 = extractvalue { ptr, i32 } %0, 0
  store ptr %1, ptr %exn.slot, align 8
  %2 = extractvalue { ptr, i32 } %0, 1
  store i32 %2, ptr %ehselector.slot, align 4
  call void @_ZN4cvc58internal8TypeNodeD2Ev(ptr noundef nonnull align 8 dereferenceable(8) %agg.tmp) #3
  br label %eh.resume

eh.resume:                                        ; preds = %lpad
  %exn = load ptr, ptr %exn.slot, align 8
  %sel = load i32, ptr %ehselector.slot, align 4
  %lpad.val = insertvalue { ptr, i32 } poison, ptr %exn, 0
  %lpad.val2 = insertvalue { ptr, i32 } %lpad.val, i32 %sel, 1
  resume { ptr, i32 } %lpad.val2
}